; Function Attrs: mustprogress uwtable
define internal void @_ZN8facebook3jsi20WithRuntimeDecoratorINS0_6detail8WithLockINS_6hermes17HermesRuntimeImplENS4_12_GLOBAL__N_111HermesMutexEEES5_NS0_17ThreadSafeRuntimeEE6globalEv(ptr noalias nocapture writeonly sret(%"class.facebook::jsi::Object") align 8 %agg.result, ptr nocapture noundef nonnull readonly align 8 dereferenceable(32) %this) unnamed_addr #0 align 2 personality ptr @__gxx_personality_v0 {
entry:
  %hv.i.i.i = alloca %"class.hermes::vm::HermesValue", align 8
  %with_ = getelementptr inbounds i8, ptr %this, i64 24
  %0 = load ptr, ptr %with_, align 8
  %call1.i.i.i.i.i.i = tail call noundef i32 @pthread_mutex_lock(ptr noundef nonnull %0) #37
  %tobool.not.i.i.i.i = icmp eq i32 %call1.i.i.i.i.i.i, 0
  br i1 %tobool.not.i.i.i.i, label %_ZN8facebook3jsi20WithRuntimeDecoratorINS0_6detail8WithLockINS_6hermes17HermesRuntimeImplENS4_12_GLOBAL__N_111HermesMutexEEES5_NS0_17ThreadSafeRuntimeEE6AroundC2ERS8_.exit, label %if.then.i.i.i.i

if.then.i.i.i.i:                                  ; preds = %entry
  tail call void @_ZSt20__throw_system_errori(i32 noundef %call1.i.i.i.i.i.i) #39
  unreachable

_ZN8facebook3jsi20WithRuntimeDecoratorINS0_6detail8WithLockINS_6hermes17HermesRuntimeImplENS4_12_GLOBAL__N_111HermesMutexEEES5_NS0_17ThreadSafeRuntimeEE6AroundC2ERS8_.exit: ; preds = %entry
  tail call void @llvm.experimental.noalias.scope.decl(metadata !266)
  %plain_.i.i = getelementptr inbounds i8, ptr %this, i64 16
  %1 = load ptr, ptr %plain_.i.i, align 8, !noalias !266
  tail call void @llvm.experimental.noalias.scope.decl(metadata !269)
  %runtime_.i.i = getelementptr inbounds i8, ptr %1, i64 128
  %2 = load ptr, ptr %runtime_.i.i, align 8, !noalias !272
  %call.i.i2 = invoke ptr @_ZN6hermes2vm7Runtime9getGlobalEv(ptr noundef nonnull align 8 dereferenceable(9832) %2)
          to label %call.i.i.noexc unwind label %lpad

call.i.i.noexc:                                   ; preds = %_ZN8facebook3jsi20WithRuntimeDecoratorINS0_6detail8WithLockINS_6hermes17HermesRuntimeImplENS4_12_GLOBAL__N_111HermesMutexEEES5_NS0_17ThreadSafeRuntimeEE6AroundC2ERS8_.exit
  %retval.sroa.0.0.copyload.i.i.i = load i64, ptr %call.i.i2, align 8, !noalias !272
  tail call void @llvm.experimental.noalias.scope.decl(metadata !273)
  call void @llvm.lifetime.start.p0(i64 8, ptr nonnull %hv.i.i.i), !noalias !272
  store i64 %retval.sroa.0.0.copyload.i.i.i, ptr %hv.i.i.i, align 8, !noalias !276
  %hermesValues_.i.i.i = getelementptr inbounds i8, ptr %1, i64 16
  %call.i.i.i3 = invoke noundef nonnull align 8 dereferenceable(24) ptr @_ZN6hermes18ManagedChunkedListIN8facebook6hermes17HermesRuntimeImpl12ManagedValueINS_2vm17PinnedHermesValueEEELm16EE3addIJRNS5_11HermesValueEEEERS7_DpOT_(ptr noundef nonnull align 8 dereferenceable(48) %hermesValues_.i.i.i, ptr noundef nonnull align 8 dereferenceable(8) %hv.i.i.i)
          to label %invoke.cont unwind label %lpad

invoke.cont:                                      ; preds = %call.i.i.noexc
  store ptr %call.i.i.i3, ptr %agg.result, align 8, !alias.scope !277
  call void @llvm.lifetime.end.p0(i64 8, ptr nonnull %hv.i.i.i), !noalias !272
  %call1.i.i.i.i.i.i4 = call noundef i32 @pthread_mutex_unlock(ptr noundef nonnull %0) #37
  ret void

lpad:                                             ; preds = %call.i.i.noexc, %_ZN8facebook3jsi20WithRuntimeDecoratorINS0_6detail8WithLockINS_6hermes17HermesRuntimeImplENS4_12_GLOBAL__N_111HermesMutexEEES5_NS0_17ThreadSafeRuntimeEE6AroundC2ERS8_.exit
  %3 = landingpad { ptr, i32 }
          cleanup
  %call1.i.i.i.i.i.i5 = call noundef i32 @pthread_mutex_unlock(ptr noundef nonnull %0) #37
  resume { ptr, i32 } %3
}